; Function Attrs: nounwind uwtable
define void @ossl_quic_hdr_protector_cleanup(ptr noundef captures(none) %0) local_unnamed_addr #0 {
  %2 = getelementptr inbounds nuw i8, ptr %0, i64 16
  %3 = load ptr, ptr %2, align 8, !tbaa !3
  tail call void @EVP_CIPHER_CTX_free(ptr noundef %3) #10
  store ptr null, ptr %2, align 8, !tbaa !3
  %4 = getelementptr inbounds nuw i8, ptr %0, i64 24
  %5 = load ptr, ptr %4, align 8, !tbaa !13
  tail call void @EVP_CIPHER_free(ptr noundef %5) #10
  store ptr null, ptr %4, align 8, !tbaa !13
  ret void
}